; Function Attrs: nounwind sspstrong uwtable
define internal range(i32 0, 2) i32 @vmdk_has_zero_init(ptr noundef readonly captures(none) %bs) #0 {
entry:
  %opaque = getelementptr inbounds nuw i8, ptr %bs, i64 24
  %0 = load ptr, ptr %opaque, align 8
  %num_extents = getelementptr inbounds nuw i8, ptr %0, i64 68
  %1 = load i32, ptr %num_extents, align 4
  %cmp6 = icmp sgt i32 %1, 0
  br i1 %cmp6, label %for.body.lr.ph, label %return

for.body.lr.ph:                                   ; preds = %entry
  %extents = getelementptr inbounds nuw i8, ptr %0, i64 72
  br label %for.body

for.body:                                         ; preds = %for.body.lr.ph, %for.inc
  %2 = phi i32 [ %1, %for.body.lr.ph ], [ %7, %for.inc ]
  %indvars.iv = phi i64 [ 0, %for.body.lr.ph ], [ %indvars.iv.next, %for.inc ]
  %3 = load ptr, ptr %extents, align 8
  %arrayidx = getelementptr %struct.VmdkExtent, ptr %3, i64 %indvars.iv
  %flat = getelementptr inbounds nuw i8, ptr %arrayidx, i64 8
  %4 = load i8, ptr %flat, align 8
  %tobool = trunc i8 %4 to i1
  br i1 %tobool, label %if.then, label %for.inc

if.then:                                          ; preds = %for.body
  %5 = load ptr, ptr %arrayidx, align 8
  %6 = load ptr, ptr %5, align 8
  %call = tail call i32 @bdrv_has_zero_init(ptr noundef %6) #15
  %tobool5.not = icmp eq i32 %call, 0
  br i1 %tobool5.not, label %return, label %if.then.for.inc_crit_edge

if.then.for.inc_crit_edge:                        ; preds = %if.then
  %.pre = load i32, ptr %num_extents, align 4
  br label %for.inc

for.inc:                                          ; preds = %if.then.for.inc_crit_edge, %for.body
  %7 = phi i32 [ %.pre, %if.then.for.inc_crit_edge ], [ %2, %for.body ]
  %indvars.iv.next = add nuw nsw i64 %indvars.iv, 1
  %8 = sext i32 %7 to i64
  %cmp = icmp slt i64 %indvars.iv.next, %8
  br i1 %cmp, label %for.body, label %return, !llvm.loop !9

return:                                           ; preds = %if.then, %for.inc, %entry
  %retval.0 = phi i32 [ 1, %entry ], [ 1, %for.inc ], [ 0, %if.then ]
  ret i32 %retval.0
}